target datalayout = "e-m:e-p270:32:32-p271:32:32-p272:64:64-i64:64-i128:128-f80:128-n8:16:32:64-S128"
target triple = "x86_64-pc-linux-gnu"

%struct.reassembly_table = type { ptr, ptr, ptr, ptr, ptr }
%struct.reassembly_table_functions = type { ptr, ptr, ptr, ptr, ptr, ptr }

@.str.415 = private unnamed_addr constant [29 x i8] c"Systems Network Architecture\00", align 1
@.str.416 = private unnamed_addr constant [4 x i8] c"SNA\00", align 1
@.str.417 = private unnamed_addr constant [4 x i8] c"sna\00", align 1
@proto_sna = internal global i32 0, align 4
@sna_handle = internal global ptr null, align 8
@.str.418 = private unnamed_addr constant [33 x i8] c"Systems Network Architecture XID\00", align 1
@.str.419 = private unnamed_addr constant [8 x i8] c"SNA XID\00", align 1
@.str.420 = private unnamed_addr constant [8 x i8] c"sna_xid\00", align 1
@proto_sna_xid = internal global i32 0, align 4
@sna_xid_handle = internal global ptr null, align 8
@.str.421 = private unnamed_addr constant [7 x i8] c"AT_SNA\00", align 1
@.str.422 = private unnamed_addr constant [12 x i8] c"SNA Address\00", align 1
@sna_address_type = internal global i32 -1, align 4
@.str.423 = private unnamed_addr constant [11 x i8] c"defragment\00", align 1
@.str.424 = private unnamed_addr constant [27 x i8] c"Reassemble fragmented BIUs\00", align 1
@.str.425 = private unnamed_addr constant [46 x i8] c"Whether fragmented BIUs should be reassembled\00", align 1
@sna_defragment = internal global i8 1, align 1
@sna_reassembly_table = internal global %struct.reassembly_table zeroinitializer, align 8
@addresses_reassembly_table_functions = external constant %struct.reassembly_table_functions, align 8

; Function Attrs: null_pointer_is_valid sspstrong uwtable
define hidden void @proto_register_sna() #0 {
  %1 = alloca ptr, align 8
  call void @llvm.lifetime.start.p0(i64 8, ptr %1) #12
  %2 = call i32 @proto_register_protocol(ptr noundef @.str.415, ptr noundef @.str.416, ptr noundef @.str.417)
  store i32 %2, ptr @proto_sna, align 4
  %3 = load i32, ptr @proto_sna, align 4
  call void @proto_register_field_array(i32 noundef %3, ptr noundef @proto_register_sna.hf, i32 noundef 207)
  call void @proto_register_subtree_array(ptr noundef @proto_register_sna.ett, i32 noundef 43)
  %4 = load i32, ptr @proto_sna, align 4
  %5 = call ptr @register_dissector(ptr noundef @.str.417, ptr noundef @dissect_sna, i32 noundef %4)
  store ptr %5, ptr @sna_handle, align 8
  %6 = call i32 @proto_register_protocol(ptr noundef @.str.418, ptr noundef @.str.419, ptr noundef @.str.420)
  store i32 %6, ptr @proto_sna_xid, align 4
  %7 = load i32, ptr @proto_sna_xid, align 4
  %8 = call ptr @register_dissector(ptr noundef @.str.420, ptr noundef @dissect_sna_xid, i32 noundef %7)
  store ptr %8, ptr @sna_xid_handle, align 8
  %9 = call i32 @address_type_dissector_register(ptr noundef @.str.421, ptr noundef @.str.422, ptr noundef @sna_fid_to_str_buf, ptr noundef @sna_address_str_len, ptr noundef null, ptr noundef null, ptr noundef null, ptr noundef null, ptr noundef null)
  store i32 %9, ptr @sna_address_type, align 4
  %10 = load i32, ptr @proto_sna, align 4
  %11 = call ptr @prefs_register_protocol(i32 noundef %10, ptr noundef null)
  store ptr %11, ptr %1, align 8
  %12 = load ptr, ptr %1, align 8
  call void @prefs_register_bool_preference(ptr noundef %12, ptr noundef @.str.423, ptr noundef @.str.424, ptr noundef @.str.425, ptr noundef @sna_defragment)
  call void @reassembly_table_register(ptr noundef @sna_reassembly_table, ptr noundef @addresses_reassembly_table_functions)
  call void @llvm.lifetime.end.p0(i64 8, ptr %1) #12
  ret void
}