; Function Attrs: null_pointer_is_valid sspstrong uwtable
define hidden void @proto_register_sna() local_unnamed_addr #0 {
  %1 = tail call i32 @proto_register_protocol(ptr noundef nonnull @.str.415, ptr noundef nonnull @.str.416, ptr noundef nonnull @.str.417)
  store i32 %1, ptr @proto_sna, align 4
  tail call void @proto_register_field_array(i32 noundef %1, ptr noundef nonnull @proto_register_sna.hf, i32 noundef 207)
  tail call void @proto_register_subtree_array(ptr noundef nonnull @proto_register_sna.ett, i32 noundef 43)
  %2 = load i32, ptr @proto_sna, align 4
  %3 = tail call ptr @register_dissector(ptr noundef nonnull @.str.417, ptr noundef nonnull @dissect_sna, i32 noundef %2)
  store ptr %3, ptr @sna_handle, align 8
  %4 = tail call i32 @proto_register_protocol(ptr noundef nonnull @.str.418, ptr noundef nonnull @.str.419, ptr noundef nonnull @.str.420)
  store i32 %4, ptr @proto_sna_xid, align 4
  %5 = tail call ptr @register_dissector(ptr noundef nonnull @.str.420, ptr noundef nonnull @dissect_sna_xid, i32 noundef %4)
  store ptr %5, ptr @sna_xid_handle, align 8
  %6 = tail call i32 @address_type_dissector_register(ptr noundef nonnull @.str.421, ptr noundef nonnull @.str.422, ptr noundef nonnull @sna_fid_to_str_buf, ptr noundef nonnull @sna_address_str_len, ptr noundef null, ptr noundef null, ptr noundef null, ptr noundef null, ptr noundef null)
  store i32 %6, ptr @sna_address_type, align 4
  %7 = load i32, ptr @proto_sna, align 4
  %8 = tail call ptr @prefs_register_protocol(i32 noundef %7, ptr noundef null)
  tail call void @prefs_register_bool_preference(ptr noundef %8, ptr noundef nonnull @.str.423, ptr noundef nonnull @.str.424, ptr noundef nonnull @.str.425, ptr noundef nonnull @sna_defragment)
  tail call void @reassembly_table_register(ptr noundef nonnull @sna_reassembly_table, ptr noundef nonnull @addresses_reassembly_table_functions)
  ret void
}